; Function Attrs: nounwind uwtable
define dso_local i32 @je_mallctl(ptr noundef %name, ptr noundef %oldp, ptr noundef %oldlenp, ptr noundef %newp, i64 noundef %newlen) local_unnamed_addr #1 {
entry:
  %0 = load i32, ptr @malloc_init_state, align 4
  %cmp.i.not = icmp eq i32 %0, 0
  br i1 %cmp.i.not, label %if.end.i, label %land.lhs.true.i

land.lhs.true.i:                                  ; preds = %entry
  %call3.i = tail call fastcc zeroext i1 @malloc_init_hard()
  br i1 %call3.i, label %return, label %if.end.i

if.end.i:                                         ; preds = %land.lhs.true.i, %entry
  %1 = tail call align 8 ptr @llvm.threadlocal.address.p0(ptr align 8 @tsd_tls)
  %state.i.i = getelementptr inbounds i8, ptr %1, i64 832
  %2 = load i8, ptr %state.i.i, align 8
  %cmp6.i.not = icmp eq i8 %2, 0
  br i1 %cmp6.i.not, label %tsd_fetch_impl.exit, label %if.then11.i

if.then11.i:                                      ; preds = %if.end.i
  %call13.i = tail call ptr @tsd_fetch_slow(ptr noundef nonnull %1, i1 noundef zeroext false) #19
  br label %tsd_fetch_impl.exit

tsd_fetch_impl.exit:                              ; preds = %if.end.i, %if.then11.i
  %retval.i13.0 = phi ptr [ %call13.i, %if.then11.i ], [ %1, %if.end.i ]
  %call6 = tail call i32 @ctl_byname(ptr noundef %retval.i13.0, ptr noundef %name, ptr noundef %oldp, ptr noundef %oldlenp, ptr noundef %newp, i64 noundef %newlen) #19
  br label %return

return:                                           ; preds = %land.lhs.true.i, %tsd_fetch_impl.exit
  %retval.0 = phi i32 [ %call6, %tsd_fetch_impl.exit ], [ 11, %land.lhs.true.i ]
  ret i32 %retval.0
}